target datalayout = "e-m:e-p270:32:32-p271:32:32-p272:64:64-i64:64-i128:128-f80:128-n8:16:32:64-S128"
target triple = "x86_64-pc-linux-gnu"

%struct.stbtt__buf = type { ptr, i32, i32 }
%struct.stbtt_fontinfo = type { ptr, ptr, i32, i32, i32, i32, i32, i32, i32, i32, i32, i32, i32, i32, %struct.stbtt__buf, %struct.stbtt__buf, %struct.stbtt__buf, %struct.stbtt__buf, %struct.stbtt__buf, %struct.stbtt__buf }

; Function Attrs: nounwind uwtable
define i32 @stbtt_GetCodepointKernAdvance(ptr noundef %0, i32 noundef %1, i32 noundef %2) #0 {
  %4 = alloca i32, align 4
  %5 = alloca ptr, align 8
  %6 = alloca i32, align 4
  %7 = alloca i32, align 4
  store ptr %0, ptr %5, align 8, !tbaa !28
  store i32 %1, ptr %6, align 4, !tbaa !14
  store i32 %2, ptr %7, align 4, !tbaa !14
  %8 = load ptr, ptr %5, align 8, !tbaa !28
  %9 = getelementptr inbounds nuw %struct.stbtt_fontinfo, ptr %8, i32 0, i32 9
  %10 = load i32, ptr %9, align 4, !tbaa !39
  %11 = icmp ne i32 %10, 0
  br i1 %11, label %18, label %12

12:                                               ; preds = %3
  %13 = load ptr, ptr %5, align 8, !tbaa !28
  %14 = getelementptr inbounds nuw %struct.stbtt_fontinfo, ptr %13, i32 0, i32 10
  %15 = load i32, ptr %14, align 8, !tbaa !40
  %16 = icmp ne i32 %15, 0
  br i1 %16, label %18, label %17

17:                                               ; preds = %12
  store i32 0, ptr %4, align 4
  br label %27

18:                                               ; preds = %12, %3
  %19 = load ptr, ptr %5, align 8, !tbaa !28
  %20 = load ptr, ptr %5, align 8, !tbaa !28
  %21 = load i32, ptr %6, align 4, !tbaa !14
  %22 = call i32 @stbtt_FindGlyphIndex(ptr noundef %20, i32 noundef %21)
  %23 = load ptr, ptr %5, align 8, !tbaa !28
  %24 = load i32, ptr %7, align 4, !tbaa !14
  %25 = call i32 @stbtt_FindGlyphIndex(ptr noundef %23, i32 noundef %24)
  %26 = call i32 @stbtt_GetGlyphKernAdvance(ptr noundef %19, i32 noundef %22, i32 noundef %25)
  store i32 %26, ptr %4, align 4
  br label %27

27:                                               ; preds = %18, %17
  %28 = load i32, ptr %4, align 4
  ret i32 %28
}