; Function Attrs: nofree norecurse nosync nounwind memory(read, inaccessiblemem: none) uwtable
define range(i32 -32768, 32768) i32 @stbtt_GetCodepointKernAdvance(ptr noundef readonly captures(none) %0, i32 noundef %1, i32 noundef %2) local_unnamed_addr #8 {
  %4 = getelementptr inbounds nuw i8, ptr %0, i64 44
  %5 = load i32, ptr %4, align 4, !tbaa !30
  %.not = icmp eq i32 %5, 0
  br i1 %.not, label %6, label %9

6:                                                ; preds = %3
  %7 = getelementptr inbounds nuw i8, ptr %0, i64 48
  %8 = load i32, ptr %7, align 8, !tbaa !31
  %.not7 = icmp eq i32 %8, 0
  br i1 %.not7, label %13, label %9

9:                                                ; preds = %6, %3
  %10 = tail call i32 @stbtt_FindGlyphIndex(ptr noundef nonnull %0, i32 noundef %1)
  %11 = tail call i32 @stbtt_FindGlyphIndex(ptr noundef nonnull %0, i32 noundef %2)
  %12 = tail call i32 @stbtt_GetGlyphKernAdvance(ptr noundef nonnull %0, i32 noundef %10, i32 noundef %11)
  br label %13

13:                                               ; preds = %6, %9
  %.0 = phi i32 [ %12, %9 ], [ 0, %6 ]
  ret i32 %.0
}